; Function Attrs: mustprogress nofree norecurse nosync nounwind willreturn memory(none) uwtable
define internal double @trc_smpte_st2084(double noundef %0) #0 {
  %2 = fcmp nsz olt double %0, 0.000000e+00
  br i1 %2, label %10, label %3

3:                                                ; preds = %1
  %4 = fdiv nsz double %0, 1.000000e+04
  %5 = tail call nsz double @llvm.pow.f64(double %4, double 0x3FC4640000000000)
  %6 = tail call nsz double @llvm.fmuladd.f64(double %5, double 0x4032DA0000000000, double 0x3FEAC00000000000)
  %7 = tail call nsz double @llvm.fmuladd.f64(double %5, double 1.868750e+01, double 1.000000e+00)
  %8 = fdiv nsz double %6, %7
  %9 = tail call nsz double @llvm.pow.f64(double %8, double 0x4053B60000000000)
  br label %10

10:                                               ; preds = %1, %3
  %11 = phi nsz double [ %9, %3 ], [ 0.000000e+00, %1 ]
  ret double %11
}